target datalayout = "e-m:e-p270:32:32-p271:32:32-p272:64:64-i64:64-i128:128-f80:128-n8:16:32:64-S128"
target triple = "x86_64-pc-linux-gnu"

%"class.std::_Function_base" = type { %"union.std::_Any_data", ptr }
%"union.std::_Any_data" = type { %"union.std::_Nocopy_types" }
%"union.std::_Nocopy_types" = type { { i64, i64 } }
%"class.std::vector.19" = type { %"struct.std::_Vector_base.20" }
%"struct.std::_Vector_base.20" = type { %"struct.std::_Vector_base<char, std::allocator<char>>::_Vector_impl" }
%"struct.std::_Vector_base<char, std::allocator<char>>::_Vector_impl" = type { %"struct.std::_Vector_base<char, std::allocator<char>>::_Vector_impl_data" }
%"struct.std::_Vector_base<char, std::allocator<char>>::_Vector_impl_data" = type { ptr, ptr, ptr }
%struct.uv_buf_t = type { ptr, i64 }
%class.anon.95 = type { i8 }
%class.cmUVStreamReadHandle = type { %"class.std::vector.19", %"class.std::function.89", %"class.std::function.92" }
%"class.std::function.89" = type { %"class.std::_Function_base", ptr }
%"class.std::function.92" = type { %"class.std::_Function_base", ptr }
%struct.uv_handle_s = type { ptr, ptr, i32, ptr, [2 x ptr], %union.anon.99, ptr, i32 }
%union.anon.99 = type { [4 x ptr] }

; Function Attrs: mustprogress nounwind uwtable
define linkonce_odr dso_local noundef ptr @_ZNKSt6vectorIcSaIcEE11_M_data_ptrIcEEPT_S4_(ptr noundef nonnull align 8 dereferenceable(24) %0, ptr noundef %1) #4 comdat align 2 {
  %3 = alloca ptr, align 8
  %4 = alloca ptr, align 8
  store ptr %0, ptr %3, align 8, !tbaa !139
  store ptr %1, ptr %4, align 8, !tbaa !33
  %5 = load ptr, ptr %4, align 8, !tbaa !33
  ret ptr %5
}

; Function Attrs: mustprogress nounwind uwtable
define linkonce_odr dso_local noundef ptr @_ZNSt6vectorIcSaIcEE4dataEv(ptr noundef nonnull align 8 dereferenceable(24) %0) #4 comdat align 2 {
  %2 = alloca ptr, align 8
  store ptr %0, ptr %2, align 8, !tbaa !139
  %3 = load ptr, ptr %2, align 8
  %4 = getelementptr inbounds nuw %"struct.std::_Vector_base.20", ptr %3, i32 0, i32 0
  %5 = getelementptr inbounds nuw %"struct.std::_Vector_base<char, std::allocator<char>>::_Vector_impl_data", ptr %4, i32 0, i32 0
  %6 = load ptr, ptr %5, align 8, !tbaa !169
  %7 = call noundef ptr @_ZNKSt6vectorIcSaIcEE11_M_data_ptrIcEEPT_S4_(ptr noundef nonnull align 8 dereferenceable(24) %3, ptr noundef %6) #3
  ret ptr %7
}

; Function Attrs: inlinehint mustprogress uwtable
define internal void @"_ZZ14cmUVStreamReadIZZN13cmSystemTools16RunSingleCommandERKSt6vectorINSt7__cxx1112basic_stringIcSt11char_traitsIcESaIcEEESaIS7_EEPS7_SC_PiPKcNS0_12OutputOptionENSt6chrono8durationIdSt5ratioILl1ELl1EEEEN15cmProcessOutput8EncodingEENK3$_1clERN2cm11uv_pipe_ptrEiSC_RS1_IcS6_EiPFvRKS7_ERbEUlSS_E_ZZNS0_16RunSingleCommandESB_SC_SC_SD_SF_SG_SL_SN_ENKSO_clESR_iSC_ST_iSX_SY_EUlvE_ESt10unique_ptrI20cmUVStreamReadHandleSt14default_deleteIS12_EEP11uv_stream_sT_T0_ENKUlP11uv_handle_smP8uv_buf_tE_clES1B_mS1D_"(ptr noundef nonnull align 1 dereferenceable(1) %0, ptr noundef %1, i64 noundef %2, ptr noundef %3) #5 align 2 {
  %5 = alloca ptr, align 8
  %6 = alloca ptr, align 8
  %7 = alloca i64, align 8
  %8 = alloca ptr, align 8
  %9 = alloca ptr, align 8
  store ptr %0, ptr %5, align 8, !tbaa !67
  store ptr %1, ptr %6, align 8, !tbaa !454
  store i64 %2, ptr %7, align 8, !tbaa !45
  store ptr %3, ptr %8, align 8, !tbaa !455
  call void @llvm.lifetime.start.p0(i64 8, ptr %9) #3
  %10 = load ptr, ptr %6, align 8, !tbaa !454
  %11 = getelementptr inbounds nuw %struct.uv_handle_s, ptr %10, i32 0, i32 0
  %12 = load ptr, ptr %11, align 8, !tbaa !457
  store ptr %12, ptr %9, align 8, !tbaa !162
  %13 = load ptr, ptr %9, align 8, !tbaa !162
  %14 = getelementptr inbounds nuw %class.cmUVStreamReadHandle, ptr %13, i32 0, i32 0
  %15 = load i64, ptr %7, align 8, !tbaa !45
  call void @_ZNSt6vectorIcSaIcEE6resizeEm(ptr noundef nonnull align 8 dereferenceable(24) %14, i64 noundef %15)
  %16 = load ptr, ptr %9, align 8, !tbaa !162
  %17 = getelementptr inbounds nuw %class.cmUVStreamReadHandle, ptr %16, i32 0, i32 0
  %18 = call noundef ptr @_ZNSt6vectorIcSaIcEE4dataEv(ptr noundef nonnull align 8 dereferenceable(24) %17) #3
  %19 = load ptr, ptr %8, align 8, !tbaa !455
  %20 = getelementptr inbounds nuw %struct.uv_buf_t, ptr %19, i32 0, i32 0
  store ptr %18, ptr %20, align 8, !tbaa !459
  %21 = load i64, ptr %7, align 8, !tbaa !45
  %22 = load ptr, ptr %8, align 8, !tbaa !455
  %23 = getelementptr inbounds nuw %struct.uv_buf_t, ptr %22, i32 0, i32 1
  store i64 %21, ptr %23, align 8, !tbaa !461
  call void @llvm.lifetime.end.p0(i64 8, ptr %9) #3
  ret void
}

; Function Attrs: inlinehint mustprogress uwtable
define internal void @"_ZZ14cmUVStreamReadIZZN13cmSystemTools16RunSingleCommandERKSt6vectorINSt7__cxx1112basic_stringIcSt11char_traitsIcESaIcEEESaIS7_EEPS7_SC_PiPKcNS0_12OutputOptionENSt6chrono8durationIdSt5ratioILl1ELl1EEEEN15cmProcessOutput8EncodingEENK3$_1clERN2cm11uv_pipe_ptrEiSC_RS1_IcS6_EiPFvRKS7_ERbEUlSS_E_ZZNS0_16RunSingleCommandESB_SC_SC_SD_SF_SG_SL_SN_ENKSO_clESR_iSC_ST_iSX_SY_EUlvE_ESt10unique_ptrI20cmUVStreamReadHandleSt14default_deleteIS12_EEP11uv_stream_sT_T0_ENUlP11uv_handle_smP8uv_buf_tE_8__invokeES1B_mS1D_"(ptr noundef %0, i64 noundef %1, ptr noundef %2) #5 align 2 {
  %4 = alloca ptr, align 8
  %5 = alloca i64, align 8
  %6 = alloca ptr, align 8
  %7 = alloca %class.anon.95, align 1
  store ptr %0, ptr %4, align 8, !tbaa !454
  store i64 %1, ptr %5, align 8, !tbaa !45
  store ptr %2, ptr %6, align 8, !tbaa !455
  %8 = load ptr, ptr %4, align 8, !tbaa !454
  %9 = load i64, ptr %5, align 8, !tbaa !45
  %10 = load ptr, ptr %6, align 8, !tbaa !455
  call void @"_ZZ14cmUVStreamReadIZZN13cmSystemTools16RunSingleCommandERKSt6vectorINSt7__cxx1112basic_stringIcSt11char_traitsIcESaIcEEESaIS7_EEPS7_SC_PiPKcNS0_12OutputOptionENSt6chrono8durationIdSt5ratioILl1ELl1EEEEN15cmProcessOutput8EncodingEENK3$_1clERN2cm11uv_pipe_ptrEiSC_RS1_IcS6_EiPFvRKS7_ERbEUlSS_E_ZZNS0_16RunSingleCommandESB_SC_SC_SD_SF_SG_SL_SN_ENKSO_clESR_iSC_ST_iSX_SY_EUlvE_ESt10unique_ptrI20cmUVStreamReadHandleSt14default_deleteIS12_EEP11uv_stream_sT_T0_ENKUlP11uv_handle_smP8uv_buf_tE_clES1B_mS1D_"(ptr noundef nonnull align 1 dereferenceable(1) %7, ptr noundef %8, i64 noundef %9, ptr noundef %10)
  ret void
}