; Function Attrs: inlinehint mustprogress uwtable
define internal void @"_ZZ14cmUVStreamReadIZZN13cmSystemTools16RunSingleCommandERKSt6vectorINSt7__cxx1112basic_stringIcSt11char_traitsIcESaIcEEESaIS7_EEPS7_SC_PiPKcNS0_12OutputOptionENSt6chrono8durationIdSt5ratioILl1ELl1EEEEN15cmProcessOutput8EncodingEENK3$_1clERN2cm11uv_pipe_ptrEiSC_RS1_IcS6_EiPFvRKS7_ERbEUlSS_E_ZZNS0_16RunSingleCommandESB_SC_SC_SD_SF_SG_SL_SN_ENKSO_clESR_iSC_ST_iSX_SY_EUlvE_ESt10unique_ptrI20cmUVStreamReadHandleSt14default_deleteIS12_EEP11uv_stream_sT_T0_ENUlP11uv_handle_smP8uv_buf_tE_8__invokeES1B_mS1D_"(ptr noundef readonly captures(none) %0, i64 noundef %1, ptr noundef writeonly captures(none) initializes((0, 16)) %2) #9 align 2 {
  %.val = load ptr, ptr %0, align 8, !tbaa !800
  tail call void @_ZNSt6vectorIcSaIcEE6resizeEm(ptr noundef nonnull align 8 dereferenceable(24) %.val, i64 noundef %1)
  %4 = load ptr, ptr %.val, align 8, !tbaa !159
  store ptr %4, ptr %2, align 8, !tbaa !802
  %5 = getelementptr inbounds nuw i8, ptr %2, i64 8
  store i64 %1, ptr %5, align 8, !tbaa !804
  ret void
}